; Function Attrs: mustprogress ssp uwtable
define i64 @_ZNK6open3d4core7HashSet9GetDeviceEv(ptr noundef nonnull readonly align 8 captures(none) dereferenceable(24) %0) unnamed_addr #1 align 2 {
  %2 = getelementptr inbounds nuw i8, ptr %0, i64 8
  %3 = load ptr, ptr %2, align 8, !tbaa !19
  %4 = load ptr, ptr %3, align 8, !tbaa !4
  %5 = getelementptr inbounds nuw i8, ptr %4, i64 16
  %6 = load ptr, ptr %5, align 8
  %7 = tail call i64 %6(ptr noundef nonnull align 8 dereferenceable(152) %3)
  ret i64 %7
}